Certificate:
    Data:
        Version: 3 (0x2)
        Serial Number: 1 (0x1)
    Signature Algorithm: sha256WithRSAEncryption
        Issuer: DC=neteyelocal, DC=*, O=NetEye, OU=NetEye Root CA, CN=*.neteyelocal
        Validity
            Not Before: May 10 06:36:08 2021 GMT
            Not After : May  8 06:36:08 2031 GMT
        Subject: DC=neteyelocal, DC=*, O=NetEye, OU=NetEye Root CA, CN=*.neteyelocal
        Subject Public Key Info:
            Public Key Algorithm: rsaEncryption
                Public-Key: (4096 bit)
                Modulus:
                    00:c2:66:62:95:c8:ab:42:cf:34:77:26:4c:fc:62:
                    e3:74:3a:e0:44:ca:af:30:37:e9:cc:5c:3c:80:81:
                    75:b4:b0:9f:36:a8:27:00:3f:1c:2f:e6:7a:bb:e3:
                    65:d7:c7:82:1c:26:28:b5:02:7e:e5:91:c3:2a:d5:
                    9e:03:39:34:f8:58:c5:40:95:c9:72:84:75:8f:a7:
                    4f:41:98:20:bb:ae:bb:90:50:a5:82:94:16:18:ef:
                    8c:0d:68:6e:51:5c:5e:09:6a:de:1d:bf:e6:74:04:
                    06:40:ce:e3:d3:e4:9f:f7:de:9a:11:d5:49:95:10:
                    06:68:b4:0c:89:31:4a:42:c1:dd:12:5f:e5:05:0c:
                    f9:6a:a2:b0:ab:23:c7:25:bb:73:28:21:3b:65:f7:
                    8e:ce:5e:74:0a:1f:26:d6:a5:b6:e3:a3:90:da:e6:
                    b3:49:86:bd:e3:03:68:a0:f5:aa:e1:7c:22:67:81:
                    7f:46:a2:c1:e1:2e:aa:51:31:f4:30:42:e5:03:68:
                    0e:0f:9e:96:ba:1f:23:62:94:00:93:d9:d6:86:07:
                    c3:36:88:37:dd:67:2c:0d:90:87:42:8c:eb:42:ff:
                    ee:44:21:97:f5:90:24:48:8f:fd:d8:7a:4c:9b:48:
                    2c:bb:e9:a1:42:1f:15:7b:76:d9:13:ed:47:fa:13:
                    a9:80:6f:18:67:72:c6:52:3b:d5:de:a0:9f:c4:a7:
                    d2:75:e9:0e:05:87:62:21:18:40:fd:88:c9:0d:a9:
                    82:f2:6b:c2:19:1b:34:fa:5b:81:f7:a1:9b:75:33:
                    6f:56:3c:ad:ae:0c:1f:ab:16:f2:57:e2:5f:3b:c7:
                    6a:28:b9:36:46:c1:d9:1b:64:17:86:87:e1:9e:91:
                    2c:03:32:c6:61:42:9c:e8:e7:06:60:50:c5:3f:76:
                    f4:cb:6a:41:c9:21:7e:d8:75:88:81:8f:5a:ee:e9:
                    95:da:34:d8:96:89:5e:23:cf:c8:4e:9b:12:d4:fa:
                    55:c5:af:cb:36:cd:2b:81:a1:38:77:8f:06:63:8e:
                    6c:0e:7e:dc:0c:80:86:96:10:02:84:aa:38:61:6e:
                    ac:24:20:87:b4:ef:d7:ca:04:b4:6f:a7:19:61:74:
                    d9:79:09:5b:89:94:b4:9e:be:bd:8a:de:eb:36:29:
                    10:a3:bd:fd:aa:79:62:9f:c7:a4:ab:db:1b:ce:7c:
                    fe:e0:31:90:50:8f:82:bf:31:7f:8d:54:7d:54:69:
                    b7:07:01:ea:a2:57:0f:40:9b:78:06:3f:08:96:0e:
                    a6:6d:8e:e2:f2:e8:0a:9f:e7:23:7a:be:27:71:ac:
                    53:d2:77:da:cc:98:74:3c:a4:9f:09:86:69:3a:ff:
                    8a:20:97
                Exponent: 65537 (0x10001)
        X509v3 extensions:
            X509v3 Key Usage: critical
                Certificate Sign, CRL Sign
            X509v3 Basic Constraints: critical
                CA:TRUE
            X509v3 Subject Key Identifier: 
                AB:37:20:04:68:3D:37:96:FF:D3:6F:23:EA:55:9D:3C:22:8B:04:F8
            X509v3 Authority Key Identifier: 
                keyid:AB:37:20:04:68:3D:37:96:FF:D3:6F:23:EA:55:9D:3C:22:8B:04:F8

    Signature Algorithm: sha256WithRSAEncryption
         77:2c:64:0f:cc:73:d1:8f:ab:dc:47:61:ea:70:43:62:50:42:
         9e:89:d2:dc:7f:19:cf:71:78:0c:3e:cb:8c:4c:cd:2d:fc:52:
         85:26:4e:37:b9:26:72:0c:e4:5b:a3:26:4e:52:5e:c7:ca:69:
         07:b4:68:15:68:f1:10:e6:f0:7b:4d:e3:d1:b6:2b:2c:10:a0:
         42:3f:d1:94:af:0f:11:0b:8c:ba:c8:3c:89:7f:d3:e0:9c:2c:
         b5:b5:7b:80:13:82:86:0b:66:1e:8b:48:9a:35:43:c7:e6:e4:
         3e:ab:a4:17:d2:6c:a9:00:b0:2c:a5:ff:44:1c:55:d1:a3:c6:
         5c:5a:f1:ee:3f:31:68:92:25:8c:32:a2:37:0c:3a:3d:7e:39:
         38:6d:87:96:d9:a0:9b:b8:26:74:95:2f:a4:25:c6:97:2c:70:
         d4:57:18:c2:25:f2:90:d3:4a:79:4e:58:bc:89:87:b6:37:65:
         78:57:ae:e1:16:62:93:90:b5:20:de:40:89:5d:04:bc:50:02:
         35:36:e3:4a:27:9b:21:56:d4:a8:44:c2:99:3a:a0:c7:77:32:
         36:84:79:50:04:cc:04:f7:57:ec:29:e2:bf:67:e1:9b:b1:16:
         20:cc:c8:d0:13:0d:0d:f0:16:df:46:c2:30:09:96:83:55:b1:
         c1:4a:f2:ef:47:85:5a:33:9d:50:89:71:31:43:5f:80:8b:3e:
         b3:08:30:7b:f3:c2:e4:69:73:7f:84:04:44:c7:ce:bd:51:5a:
         1e:ab:30:4a:28:76:11:c8:98:a5:28:e1:fd:01:85:69:ac:aa:
         51:02:f3:9f:ee:0b:85:a2:de:ba:1e:90:d6:9f:30:ac:ff:f9:
         1f:13:7c:3e:05:f8:88:04:45:bb:94:0e:cc:b6:38:16:78:13:
         fe:ed:c4:2f:56:c6:3b:16:c4:b7:06:27:22:08:fe:42:78:29:
         60:b5:25:2e:82:57:bf:d0:6b:b7:45:dd:e2:c1:57:b9:a6:54:
         33:8c:7e:c6:40:ef:0c:57:7c:77:4a:38:a3:e0:1c:c9:a9:58:
         71:f9:f9:a8:a4:78:1c:4e:c0:d0:cd:3f:d1:b7:67:c7:49:86:
         b6:e9:ec:51:9d:48:1a:16:cd:b1:18:2a:95:88:d6:bc:cf:0a:
         67:1e:96:f9:c8:bc:9a:54:1a:14:6e:42:37:0c:fc:db:cc:a1:
         64:b1:1d:12:54:b5:94:72:84:8f:6d:08:24:80:e4:ec:bc:c1:
         95:81:88:c0:53:71:fe:8a:f4:91:10:fd:8d:f9:07:3b:02:ae:
         16:7d:7f:db:b7:ca:20:75:b1:92:52:75:50:9c:ce:94:87:ac:
         e7:4f:2c:88:e9:1f:72:46
-----BEGIN CERTIFICATE-----
MIIFwjCCA6qgAwIBAgIBATANBgkqhkiG9w0BAQsFADByMRswGQYKCZImiZPyLGQB
GRYLbmV0ZXllbG9jYWwxETAPBgoJkiaJk/IsZAEZFgEqMQ8wDQYDVQQKDAZOZXRF
eWUxFzAVBgNVBAsMDk5ldEV5ZSBSb290IENBMRYwFAYDVQQDDA0qLm5ldGV5ZWxv
Y2FsMB4XDTIxMDUxMDA2MzYwOFoXDTMxMDUwODA2MzYwOFowcjEbMBkGCgmSJomT
8ixkARkWC25ldGV5ZWxvY2FsMREwDwYKCZImiZPyLGQBGRYBKjEPMA0GA1UECgwG
TmV0RXllMRcwFQYDVQQLDA5OZXRFeWUgUm9vdCBDQTEWMBQGA1UEAwwNKi5uZXRl
eWVsb2NhbDCCAiIwDQYJKoZIhvcNAQEBBQADggIPADCCAgoCggIBAMJmYpXIq0LP
NHcmTPxi43Q64ETKrzA36cxcPICBdbSwnzaoJwA/HC/mervjZdfHghwmKLUCfuWR
wyrVngM5NPhYxUCVyXKEdY+nT0GYILuuu5BQpYKUFhjvjA1oblFcXglq3h2/5nQE
BkDO49Pkn/femhHVSZUQBmi0DIkxSkLB3RJf5QUM+WqisKsjxyW7cyghO2X3js5e
dAofJtaltuOjkNrms0mGveMDaKD1quF8ImeBf0aiweEuqlEx9DBC5QNoDg+elrof
I2KUAJPZ1oYHwzaIN91nLA2Qh0KM60L/7kQhl/WQJEiP/dh6TJtILLvpoUIfFXt2
2RPtR/oTqYBvGGdyxlI71d6gn8Sn0nXpDgWHYiEYQP2IyQ2pgvJrwhkbNPpbgfeh
m3Uzb1Y8ra4MH6sW8lfiXzvHaii5NkbB2RtkF4aH4Z6RLAMyxmFCnOjnBmBQxT92
9MtqQckhfth1iIGPWu7pldo02JaJXiPPyE6bEtT6VcWvyzbNK4GhOHePBmOObA5+
3AyAhpYQAoSqOGFurCQgh7Tv18oEtG+nGWF02XkJW4mUtJ6+vYre6zYpEKO9/ap5
Yp/HpKvbG858/uAxkFCPgr8xf41UfVRptwcB6qJXD0CbeAY/CJYOpm2O4vLoCp/n
I3q+J3GsU9J32syYdDyknwmGaTr/iiCXAgMBAAGjYzBhMA4GA1UdDwEB/wQEAwIB
BjAPBgNVHRMBAf8EBTADAQH/MB0GA1UdDgQWBBSrNyAEaD03lv/TbyPqVZ08IosE
+DAfBgNVHSMEGDAWgBSrNyAEaD03lv/TbyPqVZ08IosE+DANBgkqhkiG9w0BAQsF
AAOCAgEAdyxkD8xz0Y+r3Edh6nBDYlBCnonS3H8Zz3F4DD7LjEzNLfxShSZON7km
cgzkW6MmTlJex8ppB7RoFWjxEObwe03j0bYrLBCgQj/RlK8PEQuMusg8iX/T4Jws
tbV7gBOChgtmHotImjVDx+bkPqukF9JsqQCwLKX/RBxV0aPGXFrx7j8xaJIljDKi
Nww6PX45OG2Hltmgm7gmdJUvpCXGlyxw1FcYwiXykNNKeU5YvImHtjdleFeu4RZi
k5C1IN5AiV0EvFACNTbjSiebIVbUqETCmTqgx3cyNoR5UATMBPdX7Cniv2fhm7EW
IMzI0BMNDfAW30bCMAmWg1WxwUry70eFWjOdUIlxMUNfgIs+swgwe/PC5Glzf4QE
RMfOvVFaHqswSih2EciYpSjh/QGFaayqUQLzn+4LhaLeuh6Q1p8wrP/5HxN8PgX4
iARFu5QOzLY4FngT/u3EL1bGOxbEtwYnIgj+QngpYLUlLoJXv9Brt0Xd4sFXuaZU
M4x+xkDvDFd8d0o4o+AcyalYcfn5qKR4HE7A0M0/0bdnx0mGtunsUZ1IGhbNsRgq
lYjWvM8KZx6W+ci8mlQaFG5CNwz828yhZLEdElS1lHKEj20IJIDk7LzBlYGIwFNx
/or0kRD9jfkHOwKuFn1/27fKIHWxklJ1UJzOlIes508siOkfckY=
-----END CERTIFICATE-----
