Certificate:
    Data:
        Version: 3 (0x2)
        Serial Number: 1 (0x1)
    Signature Algorithm: sha256WithRSAEncryption
        Issuer: DC=example, DC=*, O=Org, OU=Org CA, CN=*.example
        Validity
            Not Before: Mar 27 11:46:35 2020 GMT
            Not After : Mar 25 11:46:35 2030 GMT
        Subject: DC=example, DC=*, O=Org, OU=Org CA, CN=*.example
        Subject Public Key Info:
            Public Key Algorithm: rsaEncryption
                Public-Key: (4096 bit)
                Modulus:
                    00:bd:23:74:92:ad:eb:8e:15:44:4b:7b:24:16:25:
                    c4:cc:ea:4b:e6:ae:73:3e:e7:2c:7a:c5:e3:6c:78:
                    8b:e0:1c:19:fe:7d:3c:a0:20:e5:46:2e:1a:f7:ef:
                    14:40:e2:06:40:c1:5e:2a:2d:40:93:f8:e1:bc:3a:
                    f0:0f:8e:d2:cb:39:11:17:5d:97:b2:97:ff:64:4c:
                    14:aa:08:ec:8a:af:ee:45:06:6d:9a:b8:8e:f1:b4:
                    d6:7a:42:25:b4:1c:48:25:01:43:4a:18:f1:b6:fc:
                    d4:29:27:7e:56:f4:0d:58:71:bd:48:17:4a:20:6a:
                    27:ce:98:a0:85:d1:02:3b:cf:d9:8a:39:9c:cf:a6:
                    a5:d3:9a:ad:ab:19:19:a8:c4:f5:f2:a9:76:bf:8b:
                    e5:7f:25:b6:a3:0f:39:36:37:bf:f0:21:bc:aa:db:
                    e8:f7:ef:b6:a3:d0:1d:51:a1:1f:7b:48:16:05:b2:
                    af:11:5b:08:c9:73:56:a7:da:ba:50:b9:b3:fc:6a:
                    f8:fd:3a:0b:16:3e:54:82:44:88:df:64:00:3b:1a:
                    c7:09:3d:4b:f6:46:61:ed:63:af:e7:01:c9:dd:16:
                    92:67:3c:46:e9:b0:0c:09:f4:1e:70:71:19:2c:04:
                    f3:4c:e4:9a:c4:0a:ca:ef:ab:2a:0f:a4:fe:44:0b:
                    b0:e5:12:80:55:8b:2b:38:a3:60:4b:4e:aa:61:4d:
                    4b:ba:80:63:62:17:7c:db:fd:b2:67:b7:05:51:80:
                    38:56:26:95:85:f0:c9:3a:a9:6a:e2:31:fd:e3:80:
                    45:8c:4f:6f:d9:2a:7f:28:16:41:22:8a:8e:99:68:
                    19:a0:d1:6c:7c:92:b1:88:04:ef:e5:f5:e3:80:8b:
                    27:08:31:35:20:32:bc:08:32:78:79:14:6e:07:27:
                    a3:7b:04:07:35:92:6f:71:ff:2b:d3:fd:f6:ec:82:
                    9d:69:f5:94:b8:18:af:86:a2:bb:e3:f3:6b:27:bd:
                    24:22:32:ec:f4:8a:b6:f4:66:d1:a0:1c:eb:f8:15:
                    ee:40:89:3b:52:1f:04:b9:5f:67:4f:6e:26:ac:24:
                    da:3f:24:9e:0d:b6:e2:85:d1:e2:74:46:d2:a9:02:
                    7c:a7:fb:73:1e:15:b4:42:b9:93:a3:86:7e:64:80:
                    bc:ba:7c:5b:ab:3c:dd:a6:b9:3f:ca:48:4d:ec:e8:
                    bc:3e:6e:1d:8b:2e:02:b0:51:33:15:1b:25:ac:6e:
                    d1:9e:e9:22:75:fe:4a:fc:c1:b5:01:88:cc:ea:83:
                    f5:10:eb:fd:28:8e:fa:92:0f:6b:bb:46:58:c0:fd:
                    39:40:e5:98:b0:f0:43:bf:ab:b1:13:18:64:75:2b:
                    d7:39:fb
                Exponent: 65537 (0x10001)
        X509v3 extensions:
            X509v3 Key Usage: critical
                Certificate Sign, CRL Sign
            X509v3 Basic Constraints: critical
                CA:TRUE
            X509v3 Subject Key Identifier: 
                98:25:7D:D2:EA:C5:13:2F:DA:A9:A3:2D:4B:09:4D:3E:33:10:65:65
            X509v3 Authority Key Identifier: 
                keyid:98:25:7D:D2:EA:C5:13:2F:DA:A9:A3:2D:4B:09:4D:3E:33:10:65:65

    Signature Algorithm: sha256WithRSAEncryption
         4d:74:6d:59:13:d1:14:0e:ae:44:9f:f8:48:29:5a:0b:28:34:
         54:1f:9b:8a:66:de:e8:04:1b:1a:b1:fb:2b:7b:4f:fe:60:86:
         28:83:28:db:91:34:4a:5b:df:03:31:19:e1:43:f1:b9:71:14:
         7b:8e:7b:5f:eb:66:81:fa:01:20:72:18:87:dc:07:a6:3b:f1:
         ea:14:05:53:96:1f:0a:8e:d0:5f:22:01:50:9b:69:6d:f1:42:
         5e:ce:dd:40:48:ad:77:35:4e:df:14:1a:fc:66:8f:a7:1c:69:
         4f:b0:89:25:82:4d:26:e4:cc:84:a6:fb:f7:4f:30:ac:0e:3e:
         e2:80:55:57:34:37:0c:63:36:90:9a:73:f7:ec:d1:0a:00:cf:
         08:ef:d9:a6:1a:44:0c:ea:c4:44:87:ac:d1:9f:74:7c:62:c7:
         21:ee:d4:74:35:b7:cc:86:72:2a:c6:e1:07:22:c1:2c:28:e2:
         fd:15:c0:2a:4a:d2:f3:1d:c6:e2:11:fb:87:9c:4e:fa:41:cb:
         df:87:ab:47:35:b4:81:e3:c0:12:81:45:8c:76:1b:17:df:72:
         b3:c9:1e:6a:a1:51:41:fd:53:61:1c:99:a8:6b:96:15:4a:d5:
         2e:4a:91:69:1d:00:87:0f:aa:62:af:1f:4f:1f:cf:05:e7:e0:
         88:ea:98:f6:15:70:8e:c3:45:35:6b:dd:0a:72:e5:6b:3c:42:
         c1:f2:06:88:0e:ce:48:13:34:bb:a8:7a:32:68:1e:73:67:d6:
         b1:22:54:90:4b:29:e2:e8:b8:c6:56:b8:e9:55:07:77:7f:9e:
         73:15:30:7a:c6:d9:45:3a:d0:d4:11:07:71:e8:86:de:29:40:
         f7:a5:17:ff:dd:18:65:0c:78:fa:99:ec:79:4b:bb:2c:4f:d1:
         7e:4c:ab:45:5b:77:b4:5c:54:91:a3:0a:54:19:6b:b1:a0:36:
         a8:d9:cc:07:95:b1:e6:c3:03:1d:db:36:d4:4c:5e:59:b3:52:
         c3:f9:78:2c:72:9e:dc:41:9c:d5:8f:64:a2:aa:db:0e:d8:8f:
         88:fa:b1:b8:fe:cf:f6:c7:84:f5:8c:fe:1e:8e:26:ed:2c:01:
         03:4a:4a:60:b7:cf:cf:87:cd:3d:cc:76:58:b6:e0:c2:8c:f6:
         5f:a0:15:4c:8d:29:85:9d:81:fe:91:35:d0:2f:3c:6a:b5:08:
         f4:92:c1:9c:d2:9a:55:28:34:0c:da:1b:3d:a2:35:71:aa:58:
         d6:2a:ac:31:64:65:c1:1a:06:fb:46:62:a4:b5:a5:3e:6c:5c:
         61:f0:b0:4a:d8:05:25:8d:fa:52:fc:3d:d0:3c:04:7c:ca:48:
         45:99:4a:cf:7a:2c:3a:8f
-----BEGIN CERTIFICATE-----
MIIFnDCCA4SgAwIBAgIBATANBgkqhkiG9w0BAQsFADBfMRcwFQYKCZImiZPyLGQB
GRYHZXhhbXBsZTERMA8GCgmSJomT8ixkARkWASoxDDAKBgNVBAoMA09yZzEPMA0G
A1UECwwGT3JnIENBMRIwEAYDVQQDDAkqLmV4YW1wbGUwHhcNMjAwMzI3MTE0NjM1
WhcNMzAwMzI1MTE0NjM1WjBfMRcwFQYKCZImiZPyLGQBGRYHZXhhbXBsZTERMA8G
CgmSJomT8ixkARkWASoxDDAKBgNVBAoMA09yZzEPMA0GA1UECwwGT3JnIENBMRIw
EAYDVQQDDAkqLmV4YW1wbGUwggIiMA0GCSqGSIb3DQEBAQUAA4ICDwAwggIKAoIC
AQC9I3SSreuOFURLeyQWJcTM6kvmrnM+5yx6xeNseIvgHBn+fTygIOVGLhr37xRA
4gZAwV4qLUCT+OG8OvAPjtLLOREXXZeyl/9kTBSqCOyKr+5FBm2auI7xtNZ6QiW0
HEglAUNKGPG2/NQpJ35W9A1Ycb1IF0ogaifOmKCF0QI7z9mKOZzPpqXTmq2rGRmo
xPXyqXa/i+V/JbajDzk2N7/wIbyq2+j377aj0B1RoR97SBYFsq8RWwjJc1an2rpQ
ubP8avj9OgsWPlSCRIjfZAA7GscJPUv2RmHtY6/nAcndFpJnPEbpsAwJ9B5wcRks
BPNM5JrECsrvqyoPpP5EC7DlEoBViys4o2BLTqphTUu6gGNiF3zb/bJntwVRgDhW
JpWF8Mk6qWriMf3jgEWMT2/ZKn8oFkEiio6ZaBmg0Wx8krGIBO/l9eOAiycIMTUg
MrwIMnh5FG4HJ6N7BAc1km9x/yvT/fbsgp1p9ZS4GK+Gorvj82snvSQiMuz0irb0
ZtGgHOv4Fe5AiTtSHwS5X2dPbiasJNo/JJ4NtuKF0eJ0RtKpAnyn+3MeFbRCuZOj
hn5kgLy6fFurPN2muT/KSE3s6Lw+bh2LLgKwUTMVGyWsbtGe6SJ1/kr8wbUBiMzq
g/UQ6/0ojvqSD2u7RljA/TlA5Ziw8EO/q7ETGGR1K9c5+wIDAQABo2MwYTAOBgNV
HQ8BAf8EBAMCAQYwDwYDVR0TAQH/BAUwAwEB/zAdBgNVHQ4EFgQUmCV90urFEy/a
qaMtSwlNPjMQZWUwHwYDVR0jBBgwFoAUmCV90urFEy/aqaMtSwlNPjMQZWUwDQYJ
KoZIhvcNAQELBQADggIBAE10bVkT0RQOrkSf+EgpWgsoNFQfm4pm3ugEGxqx+yt7
T/5ghiiDKNuRNEpb3wMxGeFD8blxFHuOe1/rZoH6ASByGIfcB6Y78eoUBVOWHwqO
0F8iAVCbaW3xQl7O3UBIrXc1Tt8UGvxmj6ccaU+wiSWCTSbkzISm+/dPMKwOPuKA
VVc0NwxjNpCac/fs0QoAzwjv2aYaRAzqxESHrNGfdHxixyHu1HQ1t8yGcirG4Qci
wSwo4v0VwCpK0vMdxuIR+4ecTvpBy9+Hq0c1tIHjwBKBRYx2GxffcrPJHmqhUUH9
U2EcmahrlhVK1S5KkWkdAIcPqmKvH08fzwXn4IjqmPYVcI7DRTVr3Qpy5Ws8QsHy
BogOzkgTNLuoejJoHnNn1rEiVJBLKeLouMZWuOlVB3d/nnMVMHrG2UU60NQRB3Ho
ht4pQPelF//dGGUMePqZ7HlLuyxP0X5Mq0Vbd7RcVJGjClQZa7GgNqjZzAeVsebD
Ax3bNtRMXlmzUsP5eCxyntxBnNWPZKKq2w7Yj4j6sbj+z/bHhPWM/h6OJu0sAQNK
SmC3z8+HzT3Mdli24MKM9l+gFUyNKYWdgf6RNdAvPGq1CPSSwZzSmlUoNAzaGz2i
NXGqWNYqrDFkZcEaBvtGYqS1pT5sXGHwsErYBSWN+lL8PdA8BHzKSEWZSs96LDqP
-----END CERTIFICATE-----
